----------------
IN: _start
0x000101aa:  00002197          auipc                   gp,2                    # 0x121aa
0x000101ae:  66e18193          addi                    gp,gp,1646
0x000101b2:  00003517          auipc                   a0,3                    # 0x131b2
0x000101b6:  80650513          addi                    a0,a0,-2042
0x000101ba:  00003617          auipc                   a2,3                    # 0x131ba
0x000101be:  dbe60613          addi                    a2,a2,-578
0x000101c2:  8e09              sub                     a2,a2,a0
0x000101c4:  4581              mv                      a1,zero
0x000101c6:  60a000ef          jal                     ra,1546                 # 0x107d0

 pc       00000000000101aa
 x0/zero  0000000000000000 x1/ra    0000000000000000 x2/sp    00002aaaab2aaa40 x3/gp    0000000000000000
 x4/tp    0000000000000000 x5/t0    0000000000000000 x6/t1    0000000000000000 x7/t2    0000000000000000
 x8/s0    0000000000000000 x9/s1    0000000000000000 x10/a0   0000000000000000 x11/a1   0000000000000000
 x12/a2   0000000000000000 x13/a3   0000000000000000 x14/a4   0000000000000000 x15/a5   0000000000000000
 x16/a6   0000000000000000 x17/a7   0000000000000000 x18/s2   0000000000000000 x19/s3   0000000000000000
 x20/s4   0000000000000000 x21/s5   0000000000000000 x22/s6   0000000000000000 x23/s7   0000000000000000
 x24/s8   0000000000000000 x25/s9   0000000000000000 x26/s10  0000000000000000 x27/s11  0000000000000000
 x28/t3   0000000000000000 x29/t4   0000000000000000 x30/t5   0000000000000000 x31/t6   0000000000000000
----------------
IN: memset
0x000107d0:  433d              addi                    t1,zero,15
0x000107d2:  872a              mv                      a4,a0
0x000107d4:  02c37163          bleu                    a2,t1,34                # 0x107f6

 pc       00000000000107d0
 x0/zero  0000000000000000 x1/ra    00000000000101ca x2/sp    00002aaaab2aaa40 x3/gp    0000000000012818
 x4/tp    0000000000000000 x5/t0    0000000000000000 x6/t1    0000000000000000 x7/t2    0000000000000000
 x8/s0    0000000000000000 x9/s1    0000000000000000 x10/a0   00000000000129b8 x11/a1   0000000000000000
 x12/a2   00000000000005c0 x13/a3   0000000000000000 x14/a4   0000000000000000 x15/a5   0000000000000000
 x16/a6   0000000000000000 x17/a7   0000000000000000 x18/s2   0000000000000000 x19/s3   0000000000000000
 x20/s4   0000000000000000 x21/s5   0000000000000000 x22/s6   0000000000000000 x23/s7   0000000000000000
 x24/s8   0000000000000000 x25/s9   0000000000000000 x26/s10  0000000000000000 x27/s11  0000000000000000
 x28/t3   0000000000000000 x29/t4   0000000000000000 x30/t5   0000000000000000 x31/t6   0000000000000000
----------------
IN: memset
0x000107d8:  00f77793          andi                    a5,a4,15
0x000107dc:  e3c1              bnez                    a5,128                  # 0x1085c

 pc       00000000000107d8
 x0/zero  0000000000000000 x1/ra    00000000000101ca x2/sp    00002aaaab2aaa40 x3/gp    0000000000012818
 x4/tp    0000000000000000 x5/t0    0000000000000000 x6/t1    000000000000000f x7/t2    0000000000000000
 x8/s0    0000000000000000 x9/s1    0000000000000000 x10/a0   00000000000129b8 x11/a1   0000000000000000
 x12/a2   00000000000005c0 x13/a3   0000000000000000 x14/a4   00000000000129b8 x15/a5   0000000000000000
 x16/a6   0000000000000000 x17/a7   0000000000000000 x18/s2   0000000000000000 x19/s3   0000000000000000
 x20/s4   0000000000000000 x21/s5   0000000000000000 x22/s6   0000000000000000 x23/s7   0000000000000000
 x24/s8   0000000000000000 x25/s9   0000000000000000 x26/s10  0000000000000000 x27/s11  0000000000000000
 x28/t3   0000000000000000 x29/t4   0000000000000000 x30/t5   0000000000000000 x31/t6   0000000000000000
----------------
IN: memset
0x0001085c:  00279693          slli                    a3,a5,2
0x00010860:  00000297          auipc                   t0,0                    # 0x10860
0x00010864:  9696              add                     a3,a3,t0
0x00010866:  8286              mv                      t0,ra
0x00010868:  fa2680e7          jalr                    ra,a3,-94

 pc       000000000001085c
 x0/zero  0000000000000000 x1/ra    00000000000101ca x2/sp    00002aaaab2aaa40 x3/gp    0000000000012818
 x4/tp    0000000000000000 x5/t0    0000000000000000 x6/t1    000000000000000f x7/t2    0000000000000000
 x8/s0    0000000000000000 x9/s1    0000000000000000 x10/a0   00000000000129b8 x11/a1   0000000000000000
 x12/a2   00000000000005c0 x13/a3   0000000000000000 x14/a4   00000000000129b8 x15/a5   0000000000000008
 x16/a6   0000000000000000 x17/a7   0000000000000000 x18/s2   0000000000000000 x19/s3   0000000000000000
 x20/s4   0000000000000000 x21/s5   0000000000000000 x22/s6   0000000000000000 x23/s7   0000000000000000
 x24/s8   0000000000000000 x25/s9   0000000000000000 x26/s10  0000000000000000 x27/s11  0000000000000000
 x28/t3   0000000000000000 x29/t4   0000000000000000 x30/t5   0000000000000000 x31/t6   0000000000000000
----------------
IN: memset
0x00010822:  00b703a3          sb                      a1,7(a4)
0x00010826:  00b70323          sb                      a1,6(a4)
0x0001082a:  00b702a3          sb                      a1,5(a4)
0x0001082e:  00b70223          sb                      a1,4(a4)
0x00010832:  00b701a3          sb                      a1,3(a4)
0x00010836:  00b70123          sb                      a1,2(a4)
0x0001083a:  00b700a3          sb                      a1,1(a4)
0x0001083e:  00b70023          sb                      a1,0(a4)
0x00010842:  8082              ret                     

 pc       0000000000010822
 x0/zero  0000000000000000 x1/ra    000000000001086c x2/sp    00002aaaab2aaa40 x3/gp    0000000000012818
 x4/tp    0000000000000000 x5/t0    00000000000101ca x6/t1    000000000000000f x7/t2    0000000000000000
 x8/s0    0000000000000000 x9/s1    0000000000000000 x10/a0   00000000000129b8 x11/a1   0000000000000000
 x12/a2   00000000000005c0 x13/a3   0000000000010880 x14/a4   00000000000129b8 x15/a5   0000000000000008
 x16/a6   0000000000000000 x17/a7   0000000000000000 x18/s2   0000000000000000 x19/s3   0000000000000000
 x20/s4   0000000000000000 x21/s5   0000000000000000 x22/s6   0000000000000000 x23/s7   0000000000000000
 x24/s8   0000000000000000 x25/s9   0000000000000000 x26/s10  0000000000000000 x27/s11  0000000000000000
 x28/t3   0000000000000000 x29/t4   0000000000000000 x30/t5   0000000000000000 x31/t6   0000000000000000
----------------
IN: memset
0x0001086c:  8096              mv                      ra,t0
0x0001086e:  17c1              addi                    a5,a5,-16
0x00010870:  8f1d              sub                     a4,a4,a5
0x00010872:  963e              add                     a2,a2,a5
0x00010874:  f8c371e3          bleu                    a2,t1,-126              # 0x107f6

 pc       000000000001086c
 x0/zero  0000000000000000 x1/ra    000000000001086c x2/sp    00002aaaab2aaa40 x3/gp    0000000000012818
 x4/tp    0000000000000000 x5/t0    00000000000101ca x6/t1    000000000000000f x7/t2    0000000000000000
 x8/s0    0000000000000000 x9/s1    0000000000000000 x10/a0   00000000000129b8 x11/a1   0000000000000000
 x12/a2   00000000000005c0 x13/a3   0000000000010880 x14/a4   00000000000129b8 x15/a5   0000000000000008
 x16/a6   0000000000000000 x17/a7   0000000000000000 x18/s2   0000000000000000 x19/s3   0000000000000000
 x20/s4   0000000000000000 x21/s5   0000000000000000 x22/s6   0000000000000000 x23/s7   0000000000000000
 x24/s8   0000000000000000 x25/s9   0000000000000000 x26/s10  0000000000000000 x27/s11  0000000000000000
 x28/t3   0000000000000000 x29/t4   0000000000000000 x30/t5   0000000000000000 x31/t6   0000000000000000
----------------
IN: memset
0x00010878:  b79d              j                       -154                    # 0x107de

 pc       0000000000010878
 x0/zero  0000000000000000 x1/ra    00000000000101ca x2/sp    00002aaaab2aaa40 x3/gp    0000000000012818
 x4/tp    0000000000000000 x5/t0    00000000000101ca x6/t1    000000000000000f x7/t2    0000000000000000
 x8/s0    0000000000000000 x9/s1    0000000000000000 x10/a0   00000000000129b8 x11/a1   0000000000000000
 x12/a2   00000000000005b8 x13/a3   0000000000010880 x14/a4   00000000000129c0 x15/a5   fffffffffffffff8
 x16/a6   0000000000000000 x17/a7   0000000000000000 x18/s2   0000000000000000 x19/s3   0000000000000000
 x20/s4   0000000000000000 x21/s5   0000000000000000 x22/s6   0000000000000000 x23/s7   0000000000000000
 x24/s8   0000000000000000 x25/s9   0000000000000000 x26/s10  0000000000000000 x27/s11  0000000000000000
 x28/t3   0000000000000000 x29/t4   0000000000000000 x30/t5   0000000000000000 x31/t6   0000000000000000
----------------
IN: memset
0x000107de:  e1bd              bnez                    a1,102                  # 0x10844

 pc       00000000000107de
 x0/zero  0000000000000000 x1/ra    00000000000101ca x2/sp    00002aaaab2aaa40 x3/gp    0000000000012818
 x4/tp    0000000000000000 x5/t0    00000000000101ca x6/t1    000000000000000f x7/t2    0000000000000000
 x8/s0    0000000000000000 x9/s1    0000000000000000 x10/a0   00000000000129b8 x11/a1   0000000000000000
 x12/a2   00000000000005b8 x13/a3   0000000000010880 x14/a4   00000000000129c0 x15/a5   fffffffffffffff8
 x16/a6   0000000000000000 x17/a7   0000000000000000 x18/s2   0000000000000000 x19/s3   0000000000000000
 x20/s4   0000000000000000 x21/s5   0000000000000000 x22/s6   0000000000000000 x23/s7   0000000000000000
 x24/s8   0000000000000000 x25/s9   0000000000000000 x26/s10  0000000000000000 x27/s11  0000000000000000
 x28/t3   0000000000000000 x29/t4   0000000000000000 x30/t5   0000000000000000 x31/t6   0000000000000000
----------------
IN: memset
0x000107e0:  ff067693          andi                    a3,a2,-16
0x000107e4:  8a3d              andi                    a2,a2,15
0x000107e6:  96ba              add                     a3,a3,a4
0x000107e8:  e30c              sd                      a1,0(a4)
0x000107ea:  e70c              sd                      a1,8(a4)
0x000107ec:  0741              addi                    a4,a4,16
0x000107ee:  fed76de3          bgtu                    a3,a4,-6                # 0x107e8

 pc       00000000000107e0
 x0/zero  0000000000000000 x1/ra    00000000000101ca x2/sp    00002aaaab2aaa40 x3/gp    0000000000012818
 x4/tp    0000000000000000 x5/t0    00000000000101ca x6/t1    000000000000000f x7/t2    0000000000000000
 x8/s0    0000000000000000 x9/s1    0000000000000000 x10/a0   00000000000129b8 x11/a1   0000000000000000
 x12/a2   00000000000005b8 x13/a3   0000000000010880 x14/a4   00000000000129c0 x15/a5   fffffffffffffff8
 x16/a6   0000000000000000 x17/a7   0000000000000000 x18/s2   0000000000000000 x19/s3   0000000000000000
 x20/s4   0000000000000000 x21/s5   0000000000000000 x22/s6   0000000000000000 x23/s7   0000000000000000
 x24/s8   0000000000000000 x25/s9   0000000000000000 x26/s10  0000000000000000 x27/s11  0000000000000000
 x28/t3   0000000000000000 x29/t4   0000000000000000 x30/t5   0000000000000000 x31/t6   0000000000000000
----------------
IN: memset
0x000107e8:  e30c              sd                      a1,0(a4)
0x000107ea:  e70c              sd                      a1,8(a4)
0x000107ec:  0741              addi                    a4,a4,16
0x000107ee:  fed76de3          bgtu                    a3,a4,-6                # 0x107e8

 pc       00000000000107e8
 x0/zero  0000000000000000 x1/ra    00000000000101ca x2/sp    00002aaaab2aaa40 x3/gp    0000000000012818
 x4/tp    0000000000000000 x5/t0    00000000000101ca x6/t1    000000000000000f x7/t2    0000000000000000
 x8/s0    0000000000000000 x9/s1    0000000000000000 x10/a0   00000000000129b8 x11/a1   0000000000000000
 x12/a2   0000000000000008 x13/a3   0000000000012f70 x14/a4   00000000000129d0 x15/a5   fffffffffffffff8
 x16/a6   0000000000000000 x17/a7   0000000000000000 x18/s2   0000000000000000 x19/s3   0000000000000000
 x20/s4   0000000000000000 x21/s5   0000000000000000 x22/s6   0000000000000000 x23/s7   0000000000000000
 x24/s8   0000000000000000 x25/s9   0000000000000000 x26/s10  0000000000000000 x27/s11  0000000000000000
 x28/t3   0000000000000000 x29/t4   0000000000000000 x30/t5   0000000000000000 x31/t6   0000000000000000
 pc       00000000000107e8
 x0/zero  0000000000000000 x1/ra    00000000000101ca x2/sp    00002aaaab2aaa40 x3/gp    0000000000012818
 x4/tp    0000000000000000 x5/t0    00000000000101ca x6/t1    000000000000000f x7/t2    0000000000000000
 x8/s0    0000000000000000 x9/s1    0000000000000000 x10/a0   00000000000129b8 x11/a1   0000000000000000
 x12/a2   0000000000000008 x13/a3   0000000000012f70 x14/a4   00000000000129e0 x15/a5   fffffffffffffff8
 x16/a6   0000000000000000 x17/a7   0000000000000000 x18/s2   0000000000000000 x19/s3   0000000000000000
 x20/s4   0000000000000000 x21/s5   0000000000000000 x22/s6   0000000000000000 x23/s7   0000000000000000
 x24/s8   0000000000000000 x25/s9   0000000000000000 x26/s10  0000000000000000 x27/s11  0000000000000000
 x28/t3   0000000000000000 x29/t4   0000000000000000 x30/t5   0000000000000000 x31/t6   0000000000000000
----------------
IN: memset
0x000107f2:  e211              bnez                    a2,4                    # 0x107f6

 pc       00000000000107f2
 x0/zero  0000000000000000 x1/ra    00000000000101ca x2/sp    00002aaaab2aaa40 x3/gp    0000000000012818
 x4/tp    0000000000000000 x5/t0    00000000000101ca x6/t1    000000000000000f x7/t2    0000000000000000
 x8/s0    0000000000000000 x9/s1    0000000000000000 x10/a0   00000000000129b8 x11/a1   0000000000000000
 x12/a2   0000000000000008 x13/a3   0000000000012f70 x14/a4   0000000000012f70 x15/a5   fffffffffffffff8
 x16/a6   0000000000000000 x17/a7   0000000000000000 x18/s2   0000000000000000 x19/s3   0000000000000000
 x20/s4   0000000000000000 x21/s5   0000000000000000 x22/s6   0000000000000000 x23/s7   0000000000000000
 x24/s8   0000000000000000 x25/s9   0000000000000000 x26/s10  0000000000000000 x27/s11  0000000000000000
 x28/t3   0000000000000000 x29/t4   0000000000000000 x30/t5   0000000000000000 x31/t6   0000000000000000
----------------
IN: memset
0x000107f6:  40c306b3          sub                     a3,t1,a2
0x000107fa:  068a              slli                    a3,a3,2
0x000107fc:  00000297          auipc                   t0,0                    # 0x107fc
0x00010800:  9696              add                     a3,a3,t0
0x00010802:  00a68067          jalr                    zero,a3,10

 pc       00000000000107f6
 x0/zero  0000000000000000 x1/ra    00000000000101ca x2/sp    00002aaaab2aaa40 x3/gp    0000000000012818
 x4/tp    0000000000000000 x5/t0    00000000000101ca x6/t1    000000000000000f x7/t2    0000000000000000
 x8/s0    0000000000000000 x9/s1    0000000000000000 x10/a0   00000000000129b8 x11/a1   0000000000000000
 x12/a2   0000000000000008 x13/a3   0000000000012f70 x14/a4   0000000000012f70 x15/a5   fffffffffffffff8
 x16/a6   0000000000000000 x17/a7   0000000000000000 x18/s2   0000000000000000 x19/s3   0000000000000000
 x20/s4   0000000000000000 x21/s5   0000000000000000 x22/s6   0000000000000000 x23/s7   0000000000000000
 x24/s8   0000000000000000 x25/s9   0000000000000000 x26/s10  0000000000000000 x27/s11  0000000000000000
 x28/t3   0000000000000000 x29/t4   0000000000000000 x30/t5   0000000000000000 x31/t6   0000000000000000
 pc       0000000000010822
 x0/zero  0000000000000000 x1/ra    00000000000101ca x2/sp    00002aaaab2aaa40 x3/gp    0000000000012818
 x4/tp    0000000000000000 x5/t0    00000000000107fc x6/t1    000000000000000f x7/t2    0000000000000000
 x8/s0    0000000000000000 x9/s1    0000000000000000 x10/a0   00000000000129b8 x11/a1   0000000000000000
 x12/a2   0000000000000008 x13/a3   0000000000010818 x14/a4   0000000000012f70 x15/a5   fffffffffffffff8
 x16/a6   0000000000000000 x17/a7   0000000000000000 x18/s2   0000000000000000 x19/s3   0000000000000000
 x20/s4   0000000000000000 x21/s5   0000000000000000 x22/s6   0000000000000000 x23/s7   0000000000000000
 x24/s8   0000000000000000 x25/s9   0000000000000000 x26/s10  0000000000000000 x27/s11  0000000000000000
 x28/t3   0000000000000000 x29/t4   0000000000000000 x30/t5   0000000000000000 x31/t6   0000000000000000
----------------
IN: _start
0x000101ca:  00000517          auipc                   a0,0                    # 0x101ca
0x000101ce:  78250513          addi                    a0,a0,1922
0x000101d2:  c519              beqz                    a0,14                   # 0x101e0

 pc       00000000000101ca
 x0/zero  0000000000000000 x1/ra    00000000000101ca x2/sp    00002aaaab2aaa40 x3/gp    0000000000012818
 x4/tp    0000000000000000 x5/t0    00000000000107fc x6/t1    000000000000000f x7/t2    0000000000000000
 x8/s0    0000000000000000 x9/s1    0000000000000000 x10/a0   00000000000129b8 x11/a1   0000000000000000
 x12/a2   0000000000000008 x13/a3   0000000000010818 x14/a4   0000000000012f70 x15/a5   fffffffffffffff8
 x16/a6   0000000000000000 x17/a7   0000000000000000 x18/s2   0000000000000000 x19/s3   0000000000000000
 x20/s4   0000000000000000 x21/s5   0000000000000000 x22/s6   0000000000000000 x23/s7   0000000000000000
 x24/s8   0000000000000000 x25/s9   0000000000000000 x26/s10  0000000000000000 x27/s11  0000000000000000
 x28/t3   0000000000000000 x29/t4   0000000000000000 x30/t5   0000000000000000 x31/t6   0000000000000000
----------------
IN: _start
0x000101d4:  00001517          auipc                   a0,1                    # 0x111d4
0x000101d8:  40e50513          addi                    a0,a0,1038
0x000101dc:  770000ef          jal                     ra,1904                 # 0x1094c

 pc       00000000000101d4
 x0/zero  0000000000000000 x1/ra    00000000000101ca x2/sp    00002aaaab2aaa40 x3/gp    0000000000012818
 x4/tp    0000000000000000 x5/t0    00000000000107fc x6/t1    000000000000000f x7/t2    0000000000000000
 x8/s0    0000000000000000 x9/s1    0000000000000000 x10/a0   000000000001094c x11/a1   0000000000000000
 x12/a2   0000000000000008 x13/a3   0000000000010818 x14/a4   0000000000012f70 x15/a5   fffffffffffffff8
 x16/a6   0000000000000000 x17/a7   0000000000000000 x18/s2   0000000000000000 x19/s3   0000000000000000
 x20/s4   0000000000000000 x21/s5   0000000000000000 x22/s6   0000000000000000 x23/s7   0000000000000000
 x24/s8   0000000000000000 x25/s9   0000000000000000 x26/s10  0000000000000000 x27/s11  0000000000000000
 x28/t3   0000000000000000 x29/t4   0000000000000000 x30/t5   0000000000000000 x31/t6   0000000000000000
----------------
IN: atexit
0x0001094c:  85aa              mv                      a1,a0
0x0001094e:  4681              mv                      a3,zero
0x00010950:  4601              mv                      a2,zero
0x00010952:  4501              mv                      a0,zero
0x00010954:  4c30006f          j                       3266                    # 0x11616

 pc       000000000001094c
 x0/zero  0000000000000000 x1/ra    00000000000101e0 x2/sp    00002aaaab2aaa40 x3/gp    0000000000012818
 x4/tp    0000000000000000 x5/t0    00000000000107fc x6/t1    000000000000000f x7/t2    0000000000000000
 x8/s0    0000000000000000 x9/s1    0000000000000000 x10/a0   00000000000115e2 x11/a1   0000000000000000
 x12/a2   0000000000000008 x13/a3   0000000000010818 x14/a4   0000000000012f70 x15/a5   fffffffffffffff8
 x16/a6   0000000000000000 x17/a7   0000000000000000 x18/s2   0000000000000000 x19/s3   0000000000000000
 x20/s4   0000000000000000 x21/s5   0000000000000000 x22/s6   0000000000000000 x23/s7   0000000000000000
 x24/s8   0000000000000000 x25/s9   0000000000000000 x26/s10  0000000000000000 x27/s11  0000000000000000
 x28/t3   0000000000000000 x29/t4   0000000000000000 x30/t5   0000000000000000 x31/t6   0000000000000000
----------------
IN: __register_exitproc
0x00011616:  1b01b783          ld                      a5,432(gp)
0x0001161a:  c3a9              beqz                    a5,66                   # 0x1165c

 pc       0000000000011616
 x0/zero  0000000000000000 x1/ra    00000000000101e0 x2/sp    00002aaaab2aaa40 x3/gp    0000000000012818
 x4/tp    0000000000000000 x5/t0    00000000000107fc x6/t1    000000000000000f x7/t2    0000000000000000
 x8/s0    0000000000000000 x9/s1    0000000000000000 x10/a0   0000000000000000 x11/a1   00000000000115e2
 x12/a2   0000000000000000 x13/a3   0000000000000000 x14/a4   0000000000012f70 x15/a5   fffffffffffffff8
 x16/a6   0000000000000000 x17/a7   0000000000000000 x18/s2   0000000000000000 x19/s3   0000000000000000
 x20/s4   0000000000000000 x21/s5   0000000000000000 x22/s6   0000000000000000 x23/s7   0000000000000000
 x24/s8   0000000000000000 x25/s9   0000000000000000 x26/s10  0000000000000000 x27/s11  0000000000000000
 x28/t3   0000000000000000 x29/t4   0000000000000000 x30/t5   0000000000000000 x31/t6   0000000000000000
----------------
IN: __register_exitproc
0x0001165c:  44818793          addi                    a5,gp,1096
0x00011660:  1af1b823          sd                      a5,432(gp)
0x00011664:  bf65              j                       -72                     # 0x1161c

 pc       000000000001165c
 x0/zero  0000000000000000 x1/ra    00000000000101e0 x2/sp    00002aaaab2aaa40 x3/gp    0000000000012818
 x4/tp    0000000000000000 x5/t0    00000000000107fc x6/t1    000000000000000f x7/t2    0000000000000000
 x8/s0    0000000000000000 x9/s1    0000000000000000 x10/a0   0000000000000000 x11/a1   00000000000115e2
 x12/a2   0000000000000000 x13/a3   0000000000000000 x14/a4   0000000000012f70 x15/a5   0000000000000000
 x16/a6   0000000000000000 x17/a7   0000000000000000 x18/s2   0000000000000000 x19/s3   0000000000000000
 x20/s4   0000000000000000 x21/s5   0000000000000000 x22/s6   0000000000000000 x23/s7   0000000000000000
 x24/s8   0000000000000000 x25/s9   0000000000000000 x26/s10  0000000000000000 x27/s11  0000000000000000
 x28/t3   0000000000000000 x29/t4   0000000000000000 x30/t5   0000000000000000 x31/t6   0000000000000000
----------------
IN: __register_exitproc
0x0001161c:  4798              lw                      a4,8(a5)
0x0001161e:  487d              addi                    a6,zero,31
0x00011620:  06e84063          bgt                     a4,a6,96                # 0x11680

 pc       000000000001161c
 x0/zero  0000000000000000 x1/ra    00000000000101e0 x2/sp    00002aaaab2aaa40 x3/gp    0000000000012818
 x4/tp    0000000000000000 x5/t0    00000000000107fc x6/t1    000000000000000f x7/t2    0000000000000000
 x8/s0    0000000000000000 x9/s1    0000000000000000 x10/a0   0000000000000000 x11/a1   00000000000115e2
 x12/a2   0000000000000000 x13/a3   0000000000000000 x14/a4   0000000000012f70 x15/a5   0000000000012c60
 x16/a6   0000000000000000 x17/a7   0000000000000000 x18/s2   0000000000000000 x19/s3   0000000000000000
 x20/s4   0000000000000000 x21/s5   0000000000000000 x22/s6   0000000000000000 x23/s7   0000000000000000
 x24/s8   0000000000000000 x25/s9   0000000000000000 x26/s10  0000000000000000 x27/s11  0000000000000000
 x28/t3   0000000000000000 x29/t4   0000000000000000 x30/t5   0000000000000000 x31/t6   0000000000000000
----------------
IN: __register_exitproc
0x00011624:  c505              beqz                    a0,40                   # 0x1164c

 pc       0000000000011624
 x0/zero  0000000000000000 x1/ra    00000000000101e0 x2/sp    00002aaaab2aaa40 x3/gp    0000000000012818
 x4/tp    0000000000000000 x5/t0    00000000000107fc x6/t1    000000000000000f x7/t2    0000000000000000
 x8/s0    0000000000000000 x9/s1    0000000000000000 x10/a0   0000000000000000 x11/a1   00000000000115e2
 x12/a2   0000000000000000 x13/a3   0000000000000000 x14/a4   0000000000000000 x15/a5   0000000000012c60
 x16/a6   000000000000001f x17/a7   0000000000000000 x18/s2   0000000000000000 x19/s3   0000000000000000
 x20/s4   0000000000000000 x21/s5   0000000000000000 x22/s6   0000000000000000 x23/s7   0000000000000000
 x24/s8   0000000000000000 x25/s9   0000000000000000 x26/s10  0000000000000000 x27/s11  0000000000000000
 x28/t3   0000000000000000 x29/t4   0000000000000000 x30/t5   0000000000000000 x31/t6   0000000000000000
----------------
IN: __register_exitproc
0x0001164c:  0017069b          addiw                   a3,a4,1
0x00011650:  070e              slli                    a4,a4,3
0x00011652:  c794              sw                      a3,8(a5)
0x00011654:  97ba              add                     a5,a5,a4
0x00011656:  eb8c              sd                      a1,16(a5)
0x00011658:  4501              mv                      a0,zero
0x0001165a:  8082              ret                     

 pc       000000000001164c
 x0/zero  0000000000000000 x1/ra    00000000000101e0 x2/sp    00002aaaab2aaa40 x3/gp    0000000000012818
 x4/tp    0000000000000000 x5/t0    00000000000107fc x6/t1    000000000000000f x7/t2    0000000000000000
 x8/s0    0000000000000000 x9/s1    0000000000000000 x10/a0   0000000000000000 x11/a1   00000000000115e2
 x12/a2   0000000000000000 x13/a3   0000000000000000 x14/a4   0000000000000000 x15/a5   0000000000012c60
 x16/a6   000000000000001f x17/a7   0000000000000000 x18/s2   0000000000000000 x19/s3   0000000000000000
 x20/s4   0000000000000000 x21/s5   0000000000000000 x22/s6   0000000000000000 x23/s7   0000000000000000
 x24/s8   0000000000000000 x25/s9   0000000000000000 x26/s10  0000000000000000 x27/s11  0000000000000000
 x28/t3   0000000000000000 x29/t4   0000000000000000 x30/t5   0000000000000000 x31/t6   0000000000000000
----------------
IN: _start
0x000101e0:  58e000ef          jal                     ra,1422                 # 0x1076e

 pc       00000000000101e0
 x0/zero  0000000000000000 x1/ra    00000000000101e0 x2/sp    00002aaaab2aaa40 x3/gp    0000000000012818
 x4/tp    0000000000000000 x5/t0    00000000000107fc x6/t1    000000000000000f x7/t2    0000000000000000
 x8/s0    0000000000000000 x9/s1    0000000000000000 x10/a0   0000000000000000 x11/a1   00000000000115e2
 x12/a2   0000000000000000 x13/a3   0000000000000001 x14/a4   0000000000000000 x15/a5   0000000000012c60
 x16/a6   000000000000001f x17/a7   0000000000000000 x18/s2   0000000000000000 x19/s3   0000000000000000
 x20/s4   0000000000000000 x21/s5   0000000000000000 x22/s6   0000000000000000 x23/s7   0000000000000000
 x24/s8   0000000000000000 x25/s9   0000000000000000 x26/s10  0000000000000000 x27/s11  0000000000000000
 x28/t3   0000000000000000 x29/t4   0000000000000000 x30/t5   0000000000000000 x31/t6   0000000000000000
----------------
IN: __libc_init_array
0x0001076e:  1101              addi                    sp,sp,-32
0x00010770:  e822              sd                      s0,16(sp)
0x00010772:  e04a              sd                      s2,0(sp)
0x00010774:  6449              lui                     s0,18
0x00010776:  6949              lui                     s2,18
0x00010778:  ec06              sd                      ra,24(sp)
0x0001077a:  e426              sd                      s1,8(sp)
0x0001077c:  00090913          mv                      s2,s2
0x00010780:  00040413          mv                      s0,s0
0x00010784:  00890d63          beq                     s2,s0,26                # 0x1079e

 pc       000000000001076e
 x0/zero  0000000000000000 x1/ra    00000000000101e4 x2/sp    00002aaaab2aaa40 x3/gp    0000000000012818
 x4/tp    0000000000000000 x5/t0    00000000000107fc x6/t1    000000000000000f x7/t2    0000000000000000
 x8/s0    0000000000000000 x9/s1    0000000000000000 x10/a0   0000000000000000 x11/a1   00000000000115e2
 x12/a2   0000000000000000 x13/a3   0000000000000001 x14/a4   0000000000000000 x15/a5   0000000000012c60
 x16/a6   000000000000001f x17/a7   0000000000000000 x18/s2   0000000000000000 x19/s3   0000000000000000
 x20/s4   0000000000000000 x21/s5   0000000000000000 x22/s6   0000000000000000 x23/s7   0000000000000000
 x24/s8   0000000000000000 x25/s9   0000000000000000 x26/s10  0000000000000000 x27/s11  0000000000000000
 x28/t3   0000000000000000 x29/t4   0000000000000000 x30/t5   0000000000000000 x31/t6   0000000000000000
----------------
IN: __libc_init_array
0x0001079e:  6949              lui                     s2,18
0x000107a0:  6449              lui                     s0,18
0x000107a2:  01090913          addi                    s2,s2,16
0x000107a6:  00040413          mv                      s0,s0
0x000107aa:  00890d63          beq                     s2,s0,26                # 0x107c4

 pc       000000000001079e
 x0/zero  0000000000000000 x1/ra    00000000000101e4 x2/sp    00002aaaab2aaa20 x3/gp    0000000000012818
 x4/tp    0000000000000000 x5/t0    00000000000107fc x6/t1    000000000000000f x7/t2    0000000000000000
 x8/s0    0000000000012000 x9/s1    0000000000000000 x10/a0   0000000000000000 x11/a1   00000000000115e2
 x12/a2   0000000000000000 x13/a3   0000000000000001 x14/a4   0000000000000000 x15/a5   0000000000012c60
 x16/a6   000000000000001f x17/a7   0000000000000000 x18/s2   0000000000012000 x19/s3   0000000000000000
 x20/s4   0000000000000000 x21/s5   0000000000000000 x22/s6   0000000000000000 x23/s7   0000000000000000
 x24/s8   0000000000000000 x25/s9   0000000000000000 x26/s10  0000000000000000 x27/s11  0000000000000000
 x28/t3   0000000000000000 x29/t4   0000000000000000 x30/t5   0000000000000000 x31/t6   0000000000000000
----------------
IN: __libc_init_array
0x000107ae:  40890933          sub                     s2,s2,s0
0x000107b2:  40395913          srai                    s2,s2,3
0x000107b6:  4481              mv                      s1,zero
0x000107b8:  601c              ld                      a5,0(s0)
0x000107ba:  0485              addi                    s1,s1,1
0x000107bc:  0421              addi                    s0,s0,8
0x000107be:  9782              jalr                    ra,a5,0

 pc       00000000000107ae
 x0/zero  0000000000000000 x1/ra    00000000000101e4 x2/sp    00002aaaab2aaa20 x3/gp    0000000000012818
 x4/tp    0000000000000000 x5/t0    00000000000107fc x6/t1    000000000000000f x7/t2    0000000000000000
 x8/s0    0000000000012000 x9/s1    0000000000000000 x10/a0   0000000000000000 x11/a1   00000000000115e2
 x12/a2   0000000000000000 x13/a3   0000000000000001 x14/a4   0000000000000000 x15/a5   0000000000012c60
 x16/a6   000000000000001f x17/a7   0000000000000000 x18/s2   0000000000012010 x19/s3   0000000000000000
 x20/s4   0000000000000000 x21/s5   0000000000000000 x22/s6   0000000000000000 x23/s7   0000000000000000
 x24/s8   0000000000000000 x25/s9   0000000000000000 x26/s10  0000000000000000 x27/s11  0000000000000000
 x28/t3   0000000000000000 x29/t4   0000000000000000 x30/t5   0000000000000000 x31/t6   0000000000000000
----------------
IN: register_fini
0x00010198:  00000793          mv                      a5,zero
0x0001019c:  c791              beqz                    a5,12                   # 0x101a8

 pc       0000000000010198
 x0/zero  0000000000000000 x1/ra    00000000000107c0 x2/sp    00002aaaab2aaa20 x3/gp    0000000000012818
 x4/tp    0000000000000000 x5/t0    00000000000107fc x6/t1    000000000000000f x7/t2    0000000000000000
 x8/s0    0000000000012008 x9/s1    0000000000000001 x10/a0   0000000000000000 x11/a1   00000000000115e2
 x12/a2   0000000000000000 x13/a3   0000000000000001 x14/a4   0000000000000000 x15/a5   0000000000010198
 x16/a6   000000000000001f x17/a7   0000000000000000 x18/s2   0000000000000002 x19/s3   0000000000000000
 x20/s4   0000000000000000 x21/s5   0000000000000000 x22/s6   0000000000000000 x23/s7   0000000000000000
 x24/s8   0000000000000000 x25/s9   0000000000000000 x26/s10  0000000000000000 x27/s11  0000000000000000
 x28/t3   0000000000000000 x29/t4   0000000000000000 x30/t5   0000000000000000 x31/t6   0000000000000000
----------------
IN: register_fini
0x000101a8:  8082              ret                     

 pc       00000000000101a8
 x0/zero  0000000000000000 x1/ra    00000000000107c0 x2/sp    00002aaaab2aaa20 x3/gp    0000000000012818
 x4/tp    0000000000000000 x5/t0    00000000000107fc x6/t1    000000000000000f x7/t2    0000000000000000
 x8/s0    0000000000012008 x9/s1    0000000000000001 x10/a0   0000000000000000 x11/a1   00000000000115e2
 x12/a2   0000000000000000 x13/a3   0000000000000001 x14/a4   0000000000000000 x15/a5   0000000000000000
 x16/a6   000000000000001f x17/a7   0000000000000000 x18/s2   0000000000000002 x19/s3   0000000000000000
 x20/s4   0000000000000000 x21/s5   0000000000000000 x22/s6   0000000000000000 x23/s7   0000000000000000
 x24/s8   0000000000000000 x25/s9   0000000000000000 x26/s10  0000000000000000 x27/s11  0000000000000000
 x28/t3   0000000000000000 x29/t4   0000000000000000 x30/t5   0000000000000000 x31/t6   0000000000000000
----------------
IN: __libc_init_array
0x000107c0:  ff24ece3          bgtu                    s2,s1,-8                # 0x107b8

 pc       00000000000107c0
 x0/zero  0000000000000000 x1/ra    00000000000107c0 x2/sp    00002aaaab2aaa20 x3/gp    0000000000012818
 x4/tp    0000000000000000 x5/t0    00000000000107fc x6/t1    000000000000000f x7/t2    0000000000000000
 x8/s0    0000000000012008 x9/s1    0000000000000001 x10/a0   0000000000000000 x11/a1   00000000000115e2
 x12/a2   0000000000000000 x13/a3   0000000000000001 x14/a4   0000000000000000 x15/a5   0000000000000000
 x16/a6   000000000000001f x17/a7   0000000000000000 x18/s2   0000000000000002 x19/s3   0000000000000000
 x20/s4   0000000000000000 x21/s5   0000000000000000 x22/s6   0000000000000000 x23/s7   0000000000000000
 x24/s8   0000000000000000 x25/s9   0000000000000000 x26/s10  0000000000000000 x27/s11  0000000000000000
 x28/t3   0000000000000000 x29/t4   0000000000000000 x30/t5   0000000000000000 x31/t6   0000000000000000
----------------
IN: __libc_init_array
0x000107b8:  601c              ld                      a5,0(s0)
0x000107ba:  0485              addi                    s1,s1,1
0x000107bc:  0421              addi                    s0,s0,8
0x000107be:  9782              jalr                    ra,a5,0

 pc       00000000000107b8
 x0/zero  0000000000000000 x1/ra    00000000000107c0 x2/sp    00002aaaab2aaa20 x3/gp    0000000000012818
 x4/tp    0000000000000000 x5/t0    00000000000107fc x6/t1    000000000000000f x7/t2    0000000000000000
 x8/s0    0000000000012008 x9/s1    0000000000000001 x10/a0   0000000000000000 x11/a1   00000000000115e2
 x12/a2   0000000000000000 x13/a3   0000000000000001 x14/a4   0000000000000000 x15/a5   0000000000000000
 x16/a6   000000000000001f x17/a7   0000000000000000 x18/s2   0000000000000002 x19/s3   0000000000000000
 x20/s4   0000000000000000 x21/s5   0000000000000000 x22/s6   0000000000000000 x23/s7   0000000000000000
 x24/s8   0000000000000000 x25/s9   0000000000000000 x26/s10  0000000000000000 x27/s11  0000000000000000
 x28/t3   0000000000000000 x29/t4   0000000000000000 x30/t5   0000000000000000 x31/t6   0000000000000000
----------------
IN: 
0x0001021e:  00000793          mv                      a5,zero
0x00010222:  cb91              beqz                    a5,20                   # 0x10236

 pc       000000000001021e
 x0/zero  0000000000000000 x1/ra    00000000000107c0 x2/sp    00002aaaab2aaa20 x3/gp    0000000000012818
 x4/tp    0000000000000000 x5/t0    00000000000107fc x6/t1    000000000000000f x7/t2    0000000000000000
 x8/s0    0000000000012010 x9/s1    0000000000000002 x10/a0   0000000000000000 x11/a1   00000000000115e2
 x12/a2   0000000000000000 x13/a3   0000000000000001 x14/a4   0000000000000000 x15/a5   000000000001021e
 x16/a6   000000000000001f x17/a7   0000000000000000 x18/s2   0000000000000002 x19/s3   0000000000000000
 x20/s4   0000000000000000 x21/s5   0000000000000000 x22/s6   0000000000000000 x23/s7   0000000000000000
 x24/s8   0000000000000000 x25/s9   0000000000000000 x26/s10  0000000000000000 x27/s11  0000000000000000
 x28/t3   0000000000000000 x29/t4   0000000000000000 x30/t5   0000000000000000 x31/t6   0000000000000000
----------------
IN: 
0x00010236:  8082              ret                     

 pc       0000000000010236
 x0/zero  0000000000000000 x1/ra    00000000000107c0 x2/sp    00002aaaab2aaa20 x3/gp    0000000000012818
 x4/tp    0000000000000000 x5/t0    00000000000107fc x6/t1    000000000000000f x7/t2    0000000000000000
 x8/s0    0000000000012010 x9/s1    0000000000000002 x10/a0   0000000000000000 x11/a1   00000000000115e2
 x12/a2   0000000000000000 x13/a3   0000000000000001 x14/a4   0000000000000000 x15/a5   0000000000000000
 x16/a6   000000000000001f x17/a7   0000000000000000 x18/s2   0000000000000002 x19/s3   0000000000000000
 x20/s4   0000000000000000 x21/s5   0000000000000000 x22/s6   0000000000000000 x23/s7   0000000000000000
 x24/s8   0000000000000000 x25/s9   0000000000000000 x26/s10  0000000000000000 x27/s11  0000000000000000
 x28/t3   0000000000000000 x29/t4   0000000000000000 x30/t5   0000000000000000 x31/t6   0000000000000000
 pc       00000000000107c0
 x0/zero  0000000000000000 x1/ra    00000000000107c0 x2/sp    00002aaaab2aaa20 x3/gp    0000000000012818
 x4/tp    0000000000000000 x5/t0    00000000000107fc x6/t1    000000000000000f x7/t2    0000000000000000
 x8/s0    0000000000012010 x9/s1    0000000000000002 x10/a0   0000000000000000 x11/a1   00000000000115e2
 x12/a2   0000000000000000 x13/a3   0000000000000001 x14/a4   0000000000000000 x15/a5   0000000000000000
 x16/a6   000000000000001f x17/a7   0000000000000000 x18/s2   0000000000000002 x19/s3   0000000000000000
 x20/s4   0000000000000000 x21/s5   0000000000000000 x22/s6   0000000000000000 x23/s7   0000000000000000
 x24/s8   0000000000000000 x25/s9   0000000000000000 x26/s10  0000000000000000 x27/s11  0000000000000000
 x28/t3   0000000000000000 x29/t4   0000000000000000 x30/t5   0000000000000000 x31/t6   0000000000000000
----------------
IN: __libc_init_array
0x000107c4:  60e2              ld                      ra,24(sp)
0x000107c6:  6442              ld                      s0,16(sp)
0x000107c8:  64a2              ld                      s1,8(sp)
0x000107ca:  6902              ld                      s2,0(sp)
0x000107cc:  6105              addi                    sp,sp,32
0x000107ce:  8082              ret                     

 pc       00000000000107c4
 x0/zero  0000000000000000 x1/ra    00000000000107c0 x2/sp    00002aaaab2aaa20 x3/gp    0000000000012818
 x4/tp    0000000000000000 x5/t0    00000000000107fc x6/t1    000000000000000f x7/t2    0000000000000000
 x8/s0    0000000000012010 x9/s1    0000000000000002 x10/a0   0000000000000000 x11/a1   00000000000115e2
 x12/a2   0000000000000000 x13/a3   0000000000000001 x14/a4   0000000000000000 x15/a5   0000000000000000
 x16/a6   000000000000001f x17/a7   0000000000000000 x18/s2   0000000000000002 x19/s3   0000000000000000
 x20/s4   0000000000000000 x21/s5   0000000000000000 x22/s6   0000000000000000 x23/s7   0000000000000000
 x24/s8   0000000000000000 x25/s9   0000000000000000 x26/s10  0000000000000000 x27/s11  0000000000000000
 x28/t3   0000000000000000 x29/t4   0000000000000000 x30/t5   0000000000000000 x31/t6   0000000000000000
----------------
IN: _start
0x000101e4:  4502              lw                      a0,0(sp)
0x000101e6:  002c              addi                    a1,sp,8
0x000101e8:  4601              mv                      a2,zero
0x000101ea:  f53ff0ef          jal                     ra,-174                 # 0x1013c

 pc       00000000000101e4
 x0/zero  0000000000000000 x1/ra    00000000000101e4 x2/sp    00002aaaab2aaa40 x3/gp    0000000000012818
 x4/tp    0000000000000000 x5/t0    00000000000107fc x6/t1    000000000000000f x7/t2    0000000000000000
 x8/s0    0000000000000000 x9/s1    0000000000000000 x10/a0   0000000000000000 x11/a1   00000000000115e2
 x12/a2   0000000000000000 x13/a3   0000000000000001 x14/a4   0000000000000000 x15/a5   0000000000000000
 x16/a6   000000000000001f x17/a7   0000000000000000 x18/s2   0000000000000000 x19/s3   0000000000000000
 x20/s4   0000000000000000 x21/s5   0000000000000000 x22/s6   0000000000000000 x23/s7   0000000000000000
 x24/s8   0000000000000000 x25/s9   0000000000000000 x26/s10  0000000000000000 x27/s11  0000000000000000
 x28/t3   0000000000000000 x29/t4   0000000000000000 x30/t5   0000000000000000 x31/t6   0000000000000000
----------------
IN: main
0x0001013c:  7179              addi                    sp,sp,-48
0x0001013e:  478d              addi                    a5,zero,3
0x00010140:  c63e              sw                      a5,12(sp)
0x00010142:  4791              addi                    a5,zero,4
0x00010144:  c83e              sw                      a5,16(sp)
0x00010146:  47b2              lw                      a5,12(sp)
0x00010148:  46c2              lw                      a3,16(sp)
0x0001014a:  6709              lui                     a4,2
0x0001014c:  9fb5              addw                    a5,a5,a3
0x0001014e:  ca3e              sw                      a5,20(sp)
0x00010150:  47d2              lw                      a5,20(sp)
0x00010152:  46b2              lw                      a3,12(sp)
0x00010154:  9f95              subw                    a5,a5,a3
0x00010156:  cc3e              sw                      a5,24(sp)
0x00010158:  47d2              lw                      a5,20(sp)
0x0001015a:  0017979b          slliw                   a5,a5,1
0x0001015e:  ce3e              sw                      a5,28(sp)
0x00010160:  47f2              lw                      a5,28(sp)
0x00010162:  8785              srai                    a5,a5,1
0x00010164:  d03e              sw                      a5,32(sp)
0x00010166:  47f2              lw                      a5,28(sp)
0x00010168:  46e2              lw                      a3,24(sp)
0x0001016a:  8ff5              and                     a5,a5,a3
0x0001016c:  d23e              sw                      a5,36(sp)
0x0001016e:  5792              lw                      a5,36(sp)
0x00010170:  46b2              lw                      a3,12(sp)
0x00010172:  8fd5              or                      a5,a5,a3
0x00010174:  d43e              sw                      a5,40(sp)
0x00010176:  57a2              lw                      a5,40(sp)
0x00010178:  5682              lw                      a3,32(sp)
0x0001017a:  8fb5              xor                     a5,a5,a3
0x0001017c:  d63e              sw                      a5,44(sp)
0x0001017e:  57b2              lw                      a5,44(sp)
0x00010180:  2781              sext.w                  a5,a5
0x00010182:  c31c              sw                      a5,0(a4)
0x00010184:  5732              lw                      a4,44(sp)
0x00010186:  00e78763          beq                     a5,a4,14                # 0x10194

 pc       000000000001013c
 x0/zero  0000000000000000 x1/ra    00000000000101ee x2/sp    00002aaaab2aaa40 x3/gp    0000000000012818
 x4/tp    0000000000000000 x5/t0    00000000000107fc x6/t1    000000000000000f x7/t2    0000000000000000
 x8/s0    0000000000000000 x9/s1    0000000000000000 x10/a0   0000000000000001 x11/a1   00002aaaab2aaa48
 x12/a2   0000000000000000 x13/a3   0000000000000001 x14/a4   0000000000000000 x15/a5   0000000000000000
 x16/a6   000000000000001f x17/a7   0000000000000000 x18/s2   0000000000000000 x19/s3   0000000000000000
 x20/s4   0000000000000000 x21/s5   0000000000000000 x22/s6   0000000000000000 x23/s7   0000000000000000
 x24/s8   0000000000000000 x25/s9   0000000000000000 x26/s10  0000000000000000 x27/s11  0000000000000000
 x28/t3   0000000000000000 x29/t4   0000000000000000 x30/t5   0000000000000000 x31/t6   0000000000000000
